target datalayout = "e-m:e-p270:32:32-p271:32:32-p272:64:64-i64:64-i128:128-f80:128-n8:16:32:64-S128"
target triple = "x86_64-pc-linux-gnu"

%struct.curl_mimepart = type { ptr, ptr, i32, i32, ptr, ptr, ptr, ptr, ptr, ptr, ptr, ptr, ptr, ptr, ptr, i64, %struct.mime_state, ptr, %struct.mime_encoder_state, i64 }
%struct.mime_state = type { i32, ptr, i64 }
%struct.mime_encoder_state = type { i64, i64, i64, [256 x i8] }

@Curl_cfree = external global ptr, align 8
@Curl_cstrdup = external global ptr, align 8

; Function Attrs: nounwind uwtable
define dso_local i32 @curl_mime_type(ptr noundef %0, ptr noundef %1) #0 {
  %3 = alloca i32, align 4
  %4 = alloca ptr, align 8
  %5 = alloca ptr, align 8
  store ptr %0, ptr %4, align 8, !tbaa !4
  store ptr %1, ptr %5, align 8, !tbaa !49
  %6 = load ptr, ptr %4, align 8, !tbaa !4
  %7 = icmp ne ptr %6, null
  br i1 %7, label %9, label %8

8:                                                ; preds = %2
  store i32 43, ptr %3, align 4
  br label %33

9:                                                ; preds = %2
  br label %10

10:                                               ; preds = %9
  %11 = load ptr, ptr @Curl_cfree, align 8, !tbaa !22
  %12 = load ptr, ptr %4, align 8, !tbaa !4
  %13 = getelementptr inbounds nuw %struct.curl_mimepart, ptr %12, i32 0, i32 12
  %14 = load ptr, ptr %13, align 8, !tbaa !23
  call void %11(ptr noundef %14)
  %15 = load ptr, ptr %4, align 8, !tbaa !4
  %16 = getelementptr inbounds nuw %struct.curl_mimepart, ptr %15, i32 0, i32 12
  store ptr null, ptr %16, align 8, !tbaa !23
  br label %17

17:                                               ; preds = %10
  %18 = load ptr, ptr %5, align 8, !tbaa !49
  %19 = icmp ne ptr %18, null
  br i1 %19, label %20, label %32

20:                                               ; preds = %17
  %21 = load ptr, ptr @Curl_cstrdup, align 8, !tbaa !22
  %22 = load ptr, ptr %5, align 8, !tbaa !49
  %23 = call ptr %21(ptr noundef %22)
  %24 = load ptr, ptr %4, align 8, !tbaa !4
  %25 = getelementptr inbounds nuw %struct.curl_mimepart, ptr %24, i32 0, i32 12
  store ptr %23, ptr %25, align 8, !tbaa !23
  %26 = load ptr, ptr %4, align 8, !tbaa !4
  %27 = getelementptr inbounds nuw %struct.curl_mimepart, ptr %26, i32 0, i32 12
  %28 = load ptr, ptr %27, align 8, !tbaa !23
  %29 = icmp ne ptr %28, null
  br i1 %29, label %31, label %30

30:                                               ; preds = %20
  store i32 27, ptr %3, align 4
  br label %33

31:                                               ; preds = %20
  br label %32

32:                                               ; preds = %31, %17
  store i32 0, ptr %3, align 4
  br label %33

33:                                               ; preds = %32, %30, %8
  %34 = load i32, ptr %3, align 4
  ret i32 %34
}